target datalayout = "e-m:e-p270:32:32-p271:32:32-p272:64:64-i64:64-i128:128-f80:128-n8:16:32:64-S128"
target triple = "x86_64-pc-linux-gnu"

%class.meshopt_Allocator = type { [24 x ptr], i64 }
%struct.meshopt_Meshlet = type { i32, i32, i32, i32 }

@_ZN17meshopt_Allocator8StorageTIvE8allocateE = linkonce_odr dso_local global ptr @_Znwm, comdat, align 8

; Function Attrs: mustprogress nounwind uwtable
define internal void @_ZN7meshoptL13finishMeshletER15meshopt_MeshletPh(ptr noundef nonnull align 4 dereferenceable(16) %0, ptr noundef %1) #0 {
  %3 = alloca ptr, align 8
  %4 = alloca ptr, align 8
  %5 = alloca i64, align 8
  store ptr %0, ptr %3, align 8, !tbaa !8
  store ptr %1, ptr %4, align 8, !tbaa !13
  call void @llvm.lifetime.start.p0(i64 8, ptr %5) #11
  %6 = load ptr, ptr %3, align 8, !tbaa !8
  %7 = getelementptr inbounds nuw %struct.meshopt_Meshlet, ptr %6, i32 0, i32 1
  %8 = load i32, ptr %7, align 4, !tbaa !74
  %9 = load ptr, ptr %3, align 8, !tbaa !8
  %10 = getelementptr inbounds nuw %struct.meshopt_Meshlet, ptr %9, i32 0, i32 3
  %11 = load i32, ptr %10, align 4, !tbaa !29
  %12 = mul i32 %11, 3
  %13 = add i32 %8, %12
  %14 = zext i32 %13 to i64
  store i64 %14, ptr %5, align 8, !tbaa !4
  br label %15

15:                                               ; preds = %19, %2
  %16 = load i64, ptr %5, align 8, !tbaa !4
  %17 = and i64 %16, 3
  %18 = icmp ne i64 %17, 0
  br i1 %18, label %19, label %24

19:                                               ; preds = %15
  %20 = load ptr, ptr %4, align 8, !tbaa !13
  %21 = load i64, ptr %5, align 8, !tbaa !4
  %22 = add i64 %21, 1
  store i64 %22, ptr %5, align 8, !tbaa !4
  %23 = getelementptr inbounds nuw i8, ptr %20, i64 %21
  store i8 0, ptr %23, align 1, !tbaa !31
  br label %15, !llvm.loop !77

24:                                               ; preds = %15
  call void @llvm.lifetime.end.p0(i64 8, ptr %5) #11
  ret void
}

; Function Attrs: mustprogress uwtable
define linkonce_odr dso_local noundef ptr @_ZN17meshopt_Allocator8allocateIhEEPT_m(ptr noundef nonnull align 8 dereferenceable(200) %0, i64 noundef %1) #2 comdat align 2 {
  %3 = alloca ptr, align 8
  %4 = alloca i64, align 8
  %5 = alloca ptr, align 8
  store ptr %0, ptr %3, align 8, !tbaa !46
  store i64 %1, ptr %4, align 8, !tbaa !4
  %6 = load ptr, ptr %3, align 8
  call void @llvm.lifetime.start.p0(i64 8, ptr %5) #11
  %7 = load ptr, ptr @_ZN17meshopt_Allocator8StorageTIvE8allocateE, align 8, !tbaa !62
  %8 = load i64, ptr %4, align 8, !tbaa !4
  %9 = icmp ugt i64 %8, -1
  br i1 %9, label %10, label %11

10:                                               ; preds = %2
  br label %14

11:                                               ; preds = %2
  %12 = load i64, ptr %4, align 8, !tbaa !4
  %13 = mul i64 %12, 1
  br label %14

14:                                               ; preds = %11, %10
  %15 = phi i64 [ -1, %10 ], [ %13, %11 ]
  %16 = call noundef ptr %7(i64 noundef %15)
  store ptr %16, ptr %5, align 8, !tbaa !13
  %17 = load ptr, ptr %5, align 8, !tbaa !13
  %18 = getelementptr inbounds nuw %class.meshopt_Allocator, ptr %6, i32 0, i32 0
  %19 = getelementptr inbounds nuw %class.meshopt_Allocator, ptr %6, i32 0, i32 1
  %20 = load i64, ptr %19, align 8, !tbaa !48
  %21 = add i64 %20, 1
  store i64 %21, ptr %19, align 8, !tbaa !48
  %22 = getelementptr inbounds nuw [24 x ptr], ptr %18, i64 0, i64 %20
  store ptr %17, ptr %22, align 8, !tbaa !62
  %23 = load ptr, ptr %5, align 8, !tbaa !13
  call void @llvm.lifetime.end.p0(i64 8, ptr %5) #11
  ret ptr %23
}

; Function Attrs: mustprogress nounwind uwtable
define linkonce_odr dso_local void @_ZN17meshopt_AllocatorC2Ev(ptr noundef nonnull align 8 dereferenceable(200) %0) unnamed_addr #0 comdat align 2 {
  %2 = alloca ptr, align 8
  store ptr %0, ptr %2, align 8, !tbaa !46
  %3 = load ptr, ptr %2, align 8
  %4 = getelementptr inbounds nuw %class.meshopt_Allocator, ptr %3, i32 0, i32 0
  call void @llvm.memset.p0.i64(ptr align 8 %4, i8 0, i64 192, i1 false)
  %5 = getelementptr inbounds nuw %class.meshopt_Allocator, ptr %3, i32 0, i32 1
  store i64 0, ptr %5, align 8, !tbaa !48
  ret void
}

; Function Attrs: mustprogress uwtable
define dso_local i64 @meshopt_buildMeshletsScan(ptr noundef %0, ptr noundef %1, ptr noundef %2, ptr noundef %3, i64 noundef %4, i64 noundef %5, i64 noundef %6, i64 noundef %7) #2 personality ptr @__gxx_personality_v0 {
  %9 = alloca ptr, align 8
  %10 = alloca ptr, align 8
  %11 = alloca ptr, align 8
  %12 = alloca ptr, align 8
  %13 = alloca i64, align 8
  %14 = alloca i64, align 8
  %15 = alloca i64, align 8
  %16 = alloca i64, align 8
  %17 = alloca %class.meshopt_Allocator, align 8
  %18 = alloca ptr, align 8
  %19 = alloca ptr, align 8
  %20 = alloca i32, align 4
  %21 = alloca %struct.meshopt_Meshlet, align 4
  %22 = alloca i64, align 8
  %23 = alloca i64, align 8
  %24 = alloca i32, align 4
  %25 = alloca i32, align 4
  %26 = alloca i32, align 4
  store ptr %0, ptr %9, align 8, !tbaa !8
  store ptr %1, ptr %10, align 8, !tbaa !11
  store ptr %2, ptr %11, align 8, !tbaa !13
  store ptr %3, ptr %12, align 8, !tbaa !11
  store i64 %4, ptr %13, align 8, !tbaa !4
  store i64 %5, ptr %14, align 8, !tbaa !4
  store i64 %6, ptr %15, align 8, !tbaa !4
  store i64 %7, ptr %16, align 8, !tbaa !4
  call void @llvm.lifetime.start.p0(i64 200, ptr %17) #11
  call void @_ZN17meshopt_AllocatorC2Ev(ptr noundef nonnull align 8 dereferenceable(200) %17)
  call void @llvm.lifetime.start.p0(i64 8, ptr %18) #11
  %27 = load i64, ptr %14, align 8, !tbaa !4
  %28 = invoke noundef ptr @_ZN17meshopt_Allocator8allocateIhEEPT_m(ptr noundef nonnull align 8 dereferenceable(200) %17, i64 noundef %27)
          to label %29 unwind label %37

29:                                               ; preds = %8
  store ptr %28, ptr %18, align 8, !tbaa !13
  %30 = load ptr, ptr %18, align 8, !tbaa !13
  %31 = load i64, ptr %14, align 8, !tbaa !4
  call void @llvm.memset.p0.i64(ptr align 1 %30, i8 -1, i64 %31, i1 false)
  call void @llvm.lifetime.start.p0(i64 16, ptr %21) #11
  call void @llvm.memset.p0.i64(ptr align 4 %21, i8 0, i64 16, i1 false)
  call void @llvm.lifetime.start.p0(i64 8, ptr %22) #11
  store i64 0, ptr %22, align 8, !tbaa !4
  call void @llvm.lifetime.start.p0(i64 8, ptr %23) #11
  store i64 0, ptr %23, align 8, !tbaa !4
  br label %32

32:                                               ; preds = %72, %29
  %33 = load i64, ptr %23, align 8, !tbaa !4
  %34 = load i64, ptr %13, align 8, !tbaa !4
  %35 = icmp ult i64 %33, %34
  br i1 %35, label %41, label %36

36:                                               ; preds = %32
  call void @llvm.lifetime.end.p0(i64 8, ptr %23) #11
  br label %79

37:                                               ; preds = %8
  %38 = landingpad { ptr, i32 }
          cleanup
  %39 = extractvalue { ptr, i32 } %38, 0
  store ptr %39, ptr %19, align 8
  %40 = extractvalue { ptr, i32 } %38, 1
  store i32 %40, ptr %20, align 4
  br label %97

41:                                               ; preds = %32
  call void @llvm.lifetime.start.p0(i64 4, ptr %24) #11
  %42 = load ptr, ptr %12, align 8, !tbaa !11
  %43 = load i64, ptr %23, align 8, !tbaa !4
  %44 = add i64 %43, 0
  %45 = getelementptr inbounds nuw i32, ptr %42, i64 %44
  %46 = load i32, ptr %45, align 4, !tbaa !23
  store i32 %46, ptr %24, align 4, !tbaa !23
  call void @llvm.lifetime.start.p0(i64 4, ptr %25) #11
  %47 = load ptr, ptr %12, align 8, !tbaa !11
  %48 = load i64, ptr %23, align 8, !tbaa !4
  %49 = add i64 %48, 1
  %50 = getelementptr inbounds nuw i32, ptr %47, i64 %49
  %51 = load i32, ptr %50, align 4, !tbaa !23
  store i32 %51, ptr %25, align 4, !tbaa !23
  call void @llvm.lifetime.start.p0(i64 4, ptr %26) #11
  %52 = load ptr, ptr %12, align 8, !tbaa !11
  %53 = load i64, ptr %23, align 8, !tbaa !4
  %54 = add i64 %53, 2
  %55 = getelementptr inbounds nuw i32, ptr %52, i64 %54
  %56 = load i32, ptr %55, align 4, !tbaa !23
  store i32 %56, ptr %26, align 4, !tbaa !23
  %57 = load i32, ptr %24, align 4, !tbaa !23
  %58 = load i32, ptr %25, align 4, !tbaa !23
  %59 = load i32, ptr %26, align 4, !tbaa !23
  %60 = load ptr, ptr %18, align 8, !tbaa !13
  %61 = load ptr, ptr %9, align 8, !tbaa !8
  %62 = load ptr, ptr %10, align 8, !tbaa !11
  %63 = load ptr, ptr %11, align 8, !tbaa !13
  %64 = load i64, ptr %22, align 8, !tbaa !4
  %65 = load i64, ptr %15, align 8, !tbaa !4
  %66 = load i64, ptr %16, align 8, !tbaa !4
  %67 = invoke noundef zeroext i1 @_ZN7meshoptL13appendMeshletER15meshopt_MeshletjjjPhPS0_PjS2_mmm(ptr noundef nonnull align 4 dereferenceable(16) %21, i32 noundef %57, i32 noundef %58, i32 noundef %59, ptr noundef %60, ptr noundef %61, ptr noundef %62, ptr noundef %63, i64 noundef %64, i64 noundef %65, i64 noundef %66)
          to label %68 unwind label %75

68:                                               ; preds = %41
  %69 = zext i1 %67 to i64
  %70 = load i64, ptr %22, align 8, !tbaa !4
  %71 = add i64 %70, %69
  store i64 %71, ptr %22, align 8, !tbaa !4
  call void @llvm.lifetime.end.p0(i64 4, ptr %26) #11
  call void @llvm.lifetime.end.p0(i64 4, ptr %25) #11
  call void @llvm.lifetime.end.p0(i64 4, ptr %24) #11
  br label %72

72:                                               ; preds = %68
  %73 = load i64, ptr %23, align 8, !tbaa !4
  %74 = add i64 %73, 3
  store i64 %74, ptr %23, align 8, !tbaa !4
  br label %32, !llvm.loop !79

75:                                               ; preds = %41
  %76 = landingpad { ptr, i32 }
          cleanup
  %77 = extractvalue { ptr, i32 } %76, 0
  store ptr %77, ptr %19, align 8
  %78 = extractvalue { ptr, i32 } %76, 1
  store i32 %78, ptr %20, align 4
  call void @llvm.lifetime.end.p0(i64 4, ptr %26) #11
  call void @llvm.lifetime.end.p0(i64 4, ptr %25) #11
  call void @llvm.lifetime.end.p0(i64 4, ptr %24) #11
  call void @llvm.lifetime.end.p0(i64 8, ptr %23) #11
  br label %96

79:                                               ; preds = %36
  %80 = getelementptr inbounds nuw %struct.meshopt_Meshlet, ptr %21, i32 0, i32 3
  %81 = load i32, ptr %80, align 4, !tbaa !29
  %82 = icmp ne i32 %81, 0
  br i1 %82, label %83, label %94

83:                                               ; preds = %79
  %84 = load ptr, ptr %11, align 8, !tbaa !13
  invoke void @_ZN7meshoptL13finishMeshletER15meshopt_MeshletPh(ptr noundef nonnull align 4 dereferenceable(16) %21, ptr noundef %84)
          to label %85 unwind label %90

85:                                               ; preds = %83
  %86 = load ptr, ptr %9, align 8, !tbaa !8
  %87 = load i64, ptr %22, align 8, !tbaa !4
  %88 = add i64 %87, 1
  store i64 %88, ptr %22, align 8, !tbaa !4
  %89 = getelementptr inbounds nuw %struct.meshopt_Meshlet, ptr %86, i64 %87
  call void @llvm.memcpy.p0.p0.i64(ptr align 4 %89, ptr align 4 %21, i64 16, i1 false), !tbaa.struct !45
  br label %94

90:                                               ; preds = %83
  %91 = landingpad { ptr, i32 }
          cleanup
  %92 = extractvalue { ptr, i32 } %91, 0
  store ptr %92, ptr %19, align 8
  %93 = extractvalue { ptr, i32 } %91, 1
  store i32 %93, ptr %20, align 4
  br label %96

94:                                               ; preds = %85, %79
  %95 = load i64, ptr %22, align 8, !tbaa !4
  call void @llvm.lifetime.end.p0(i64 8, ptr %22) #11
  call void @llvm.lifetime.end.p0(i64 16, ptr %21) #11
  call void @llvm.lifetime.end.p0(i64 8, ptr %18) #11
  call void @_ZN17meshopt_AllocatorD2Ev(ptr noundef nonnull align 8 dereferenceable(200) %17) #11
  call void @llvm.lifetime.end.p0(i64 200, ptr %17) #11
  ret i64 %95

96:                                               ; preds = %90, %75
  call void @llvm.lifetime.end.p0(i64 8, ptr %22) #11
  call void @llvm.lifetime.end.p0(i64 16, ptr %21) #11
  br label %97

97:                                               ; preds = %96, %37
  call void @llvm.lifetime.end.p0(i64 8, ptr %18) #11
  call void @_ZN17meshopt_AllocatorD2Ev(ptr noundef nonnull align 8 dereferenceable(200) %17) #11
  call void @llvm.lifetime.end.p0(i64 200, ptr %17) #11
  br label %98

98:                                               ; preds = %97
  %99 = load ptr, ptr %19, align 8
  %100 = load i32, ptr %20, align 4
  %101 = insertvalue { ptr, i32 } poison, ptr %99, 0
  %102 = insertvalue { ptr, i32 } %101, i32 %100, 1
  resume { ptr, i32 } %102
}