; Function Attrs: mustprogress uwtable
define dso_local noundef i64 @meshopt_buildMeshletsScan(ptr noundef writeonly captures(none) %0, ptr noundef captures(none) %1, ptr noundef writeonly captures(none) %2, ptr noundef readonly captures(none) %3, i64 noundef %4, i64 noundef %5, i64 noundef %6, i64 noundef %7) local_unnamed_addr #2 personality ptr @__gxx_personality_v0 {
  %9 = alloca %class.meshopt_Allocator, align 8
  %10 = alloca %struct.meshopt_Meshlet, align 4
  call void @llvm.lifetime.start.p0(i64 200, ptr nonnull %9) #17
  call void @llvm.memset.p0.i64(ptr noundef nonnull align 8 dereferenceable(200) %9, i8 0, i64 200, i1 false)
  %11 = load ptr, ptr @_ZN17meshopt_Allocator8StorageTIvE8allocateE, align 8, !tbaa !4
  %12 = invoke noundef ptr %11(i64 noundef %5)
          to label %13 unwind label %14

13:                                               ; preds = %8
  store ptr %12, ptr %9, align 8, !tbaa !4
  tail call void @llvm.memset.p0.i64(ptr align 1 %12, i8 -1, i64 %5, i1 false)
  call void @llvm.lifetime.start.p0(i64 16, ptr nonnull %10) #17
  call void @llvm.memset.p0.i64(ptr noundef nonnull align 4 dereferenceable(16) %10, i8 0, i64 16, i1 false)
  %.not35 = icmp eq i64 %4, 0
  br i1 %.not35, label %._crit_edge.thread, label %.lr.ph

._crit_edge:                                      ; preds = %.lr.ph
  %.phi.trans.insert = getelementptr inbounds nuw i8, ptr %10, i64 12
  %.pre = load i32, ptr %.phi.trans.insert, align 4, !tbaa !47
  %.not = icmp eq i32 %.pre, 0
  br i1 %.not, label %._crit_edge.thread, label %27

14:                                               ; preds = %8
  %15 = landingpad { ptr, i32 }
          cleanup
  call void @_ZN17meshopt_AllocatorD2Ev(ptr noundef nonnull align 8 dereferenceable(200) %9) #17
  call void @llvm.lifetime.end.p0(i64 200, ptr nonnull %9) #17
  resume { ptr, i32 } %15

.lr.ph:                                           ; preds = %13, %.lr.ph
  %.02934 = phi i64 [ %24, %.lr.ph ], [ 0, %13 ]
  %.03033 = phi i64 [ %25, %.lr.ph ], [ 0, %13 ]
  %16 = getelementptr inbounds nuw i32, ptr %3, i64 %.03033
  %17 = load i32, ptr %16, align 4, !tbaa !16
  %18 = getelementptr i8, ptr %16, i64 4
  %19 = load i32, ptr %18, align 4, !tbaa !16
  %20 = getelementptr i8, ptr %16, i64 8
  %21 = load i32, ptr %20, align 4, !tbaa !16
  %22 = call fastcc noundef zeroext i1 @_ZN7meshoptL13appendMeshletER15meshopt_MeshletjjjPhPS0_PjS2_mmm(ptr noundef nonnull align 4 dereferenceable(16) %10, i32 noundef %17, i32 noundef %19, i32 noundef %21, ptr noundef %12, ptr noundef %0, ptr noundef %1, ptr noundef %2, i64 noundef %.02934, i64 noundef %6, i64 noundef %7)
  %23 = zext i1 %22 to i64
  %24 = add i64 %.02934, %23
  %25 = add i64 %.03033, 3
  %26 = icmp ult i64 %25, %4
  br i1 %26, label %.lr.ph, label %._crit_edge, !llvm.loop !60

27:                                               ; preds = %._crit_edge
  %28 = getelementptr inbounds nuw i8, ptr %10, i64 4
  %.val = load i32, ptr %28, align 4, !tbaa !48
  %29 = mul i32 %.pre, 3
  %30 = add i32 %.val, %29
  %31 = zext i32 %30 to i64
  %32 = and i64 %31, 3
  %.not1.i = icmp eq i64 %32, 0
  br i1 %.not1.i, label %_ZN7meshoptL13finishMeshletER15meshopt_MeshletPh.exit, label %.lr.ph.preheader.i

.lr.ph.preheader.i:                               ; preds = %27
  %scevgep.i = getelementptr i8, ptr %2, i64 %31
  %33 = zext i32 %.pre to i64
  %34 = xor i32 %.val, -1
  %35 = zext i32 %34 to i64
  %36 = add nuw nsw i64 %35, %33
  %37 = and i64 %36, 3
  %38 = add nuw nsw i64 %37, 1
  tail call void @llvm.memset.p0.i64(ptr noundef nonnull align 1 dereferenceable(1) %scevgep.i, i8 0, i64 %38, i1 false), !tbaa !42
  br label %_ZN7meshoptL13finishMeshletER15meshopt_MeshletPh.exit

_ZN7meshoptL13finishMeshletER15meshopt_MeshletPh.exit: ; preds = %27, %.lr.ph.preheader.i
  %39 = add i64 %24, 1
  %40 = getelementptr inbounds nuw %struct.meshopt_Meshlet, ptr %0, i64 %24
  call void @llvm.memcpy.p0.p0.i64(ptr noundef nonnull align 4 dereferenceable(16) %40, ptr noundef nonnull align 4 dereferenceable(16) %10, i64 16, i1 false), !tbaa.struct !49
  br label %._crit_edge.thread

._crit_edge.thread:                               ; preds = %13, %_ZN7meshoptL13finishMeshletER15meshopt_MeshletPh.exit, %._crit_edge
  %.1 = phi i64 [ %39, %_ZN7meshoptL13finishMeshletER15meshopt_MeshletPh.exit ], [ %24, %._crit_edge ], [ 0, %13 ]
  call void @llvm.lifetime.end.p0(i64 16, ptr nonnull %10) #17
  br label %41

41:                                               ; preds = %42, %._crit_edge.thread
  %.0.i = phi i64 [ 1, %._crit_edge.thread ], [ %44, %42 ]
  %.not.i = icmp eq i64 %.0.i, 0
  br i1 %.not.i, label %_ZN17meshopt_AllocatorD2Ev.exit, label %42

42:                                               ; preds = %41
  %43 = load ptr, ptr @_ZN17meshopt_Allocator8StorageTIvE10deallocateE, align 8, !tbaa !4
  %44 = add i64 %.0.i, -1
  %45 = getelementptr inbounds nuw [24 x ptr], ptr %9, i64 0, i64 %44
  %46 = load ptr, ptr %45, align 8, !tbaa !4
  invoke void %43(ptr noundef %46)
          to label %41 unwind label %47, !llvm.loop !50

47:                                               ; preds = %42
  %48 = landingpad { ptr, i32 }
          catch ptr null
  %49 = extractvalue { ptr, i32 } %48, 0
  tail call void @__clang_call_terminate(ptr %49) #18
  unreachable

_ZN17meshopt_AllocatorD2Ev.exit:                  ; preds = %41
  call void @llvm.lifetime.end.p0(i64 200, ptr nonnull %9) #17
  ret i64 %.1
}